; Function Attrs: mustprogress uwtable
define void @_ZN5arrow8internal10FileReadAtEiPhll(ptr dead_on_unwind noalias writable sret(%"class.arrow::Result.38") align 8 %0, i32 noundef %1, ptr noundef %2, i64 noundef %3, i64 noundef %4) local_unnamed_addr #3 {
  %6 = alloca %"class.arrow::Status", align 8
  %7 = icmp sgt i64 %4, 0
  br i1 %7, label %.lr.ph, label %.thread31

.lr.ph:                                           ; preds = %5, %21
  %.01344 = phi ptr [ %22, %21 ], [ %2, %5 ]
  %.01443 = phi i64 [ %23, %21 ], [ %3, %5 ]
  %.02542 = phi i64 [ %24, %21 ], [ 0, %5 ]
  %8 = sub nsw i64 %4, %.02542
  %.sroa.speculated = tail call i64 @llvm.smin.i64(i64 %8, i64 2147479552)
  br label %9

9:                                                ; preds = %11, %.lr.ph
  %10 = tail call i64 @pread64(i32 noundef %1, ptr noundef %.01344, i64 noundef %.sroa.speculated, i64 noundef %.01443)
  switch i64 %10, label %21 [
    i64 -1, label %11
    i64 0, label %.thread31
  ]

11:                                               ; preds = %9
  %12 = tail call ptr @__errno_location() #42
  %13 = load i32, ptr %12, align 4, !tbaa !38
  %14 = icmp eq i32 %13, 4
  br i1 %14, label %9, label %_ZN5arrow8internalL12pread_compatEiPvll.exit.thread, !llvm.loop !499

_ZN5arrow8internalL12pread_compatEiPvll.exit.thread: ; preds = %11
  call void @llvm.lifetime.start.p0(i64 8, ptr nonnull %6) #38
  call void @_ZN5arrow8internal15StatusFromErrnoIJRA30_KcEEENS_6StatusEiNS_10StatusCodeEDpOT_(ptr dead_on_unwind nonnull writable sret(%"class.arrow::Status") align 8 %6, i32 noundef %13, i8 noundef signext 5, ptr noundef nonnull align 1 dereferenceable(30) @.str.18)
  call void @_ZN5arrow6ResultIlEC2ERKNS_6StatusE(ptr noundef nonnull align 8 dereferenceable(16) %0, ptr noundef nonnull align 8 dereferenceable(8) %6) #38
  %15 = load ptr, ptr %6, align 8, !tbaa !89
  %.not.i = icmp eq ptr %15, null
  br i1 %.not.i, label %.thread, label %16, !prof !92

16:                                               ; preds = %_ZN5arrow8internalL12pread_compatEiPvll.exit.thread
  %17 = getelementptr inbounds nuw i8, ptr %15, i64 1
  %18 = load i8, ptr %17, align 1, !tbaa !93, !range !98, !noundef !99
  %19 = trunc nuw i8 %18 to i1
  br i1 %19, label %.thread, label %20

20:                                               ; preds = %16
  call void @_ZN5arrow6Status11DeleteStateEv(ptr noundef nonnull align 8 dereferenceable(8) %6) #38
  br label %.thread

.thread:                                          ; preds = %20, %16, %_ZN5arrow8internalL12pread_compatEiPvll.exit.thread
  call void @llvm.lifetime.end.p0(i64 8, ptr nonnull %6) #38
  br label %27

21:                                               ; preds = %9
  %22 = getelementptr inbounds i8, ptr %.01344, i64 %10
  %23 = add nsw i64 %10, %.01443
  %24 = add nsw i64 %10, %.02542
  %25 = icmp slt i64 %24, %4
  br i1 %25, label %.lr.ph, label %.thread31

.thread31:                                        ; preds = %21, %9, %5
  %.02541 = phi i64 [ 0, %5 ], [ %.02542, %9 ], [ %24, %21 ]
  store ptr null, ptr %0, align 8, !tbaa !89
  %26 = getelementptr inbounds nuw i8, ptr %0, i64 8
  store i64 %.02541, ptr %26, align 8, !tbaa !9
  br label %27

27:                                               ; preds = %.thread, %.thread31
  ret void
}